target datalayout = "e-m:e-p270:32:32-p271:32:32-p272:64:64-i64:64-i128:128-f80:128-n8:16:32:64-S128"
target triple = "x86_64-pc-linux-gnu"

%struct.edpar = type { i32, i8, i8, i32, i32, i32, %struct.gmx_edx, i8, %struct.gmx_edx, %struct.gmx_edx, %struct.gmx_edx, %"struct.(anonymous namespace)::t_edvecs", float, %"struct.(anonymous namespace)::t_edflood", ptr }
%struct.gmx_edx = type { i32, i32, ptr, ptr, i32, ptr, ptr, ptr, ptr, float, ptr }
%"struct.(anonymous namespace)::t_edvecs" = type { %"struct.(anonymous namespace)::t_eigvec", %"struct.(anonymous namespace)::t_eigvec", %"struct.(anonymous namespace)::t_eigvec", %"struct.(anonymous namespace)::t_eigvec", %"struct.(anonymous namespace)::t_eigvec", %"struct.(anonymous namespace)::t_eigvec" }
%"struct.(anonymous namespace)::t_eigvec" = type { i32, ptr, ptr, ptr, ptr, ptr, float, ptr }
%"struct.(anonymous namespace)::t_edflood" = type { float, i8, float, float, float, float, float, float, float, float, ptr, %"struct.(anonymous namespace)::t_eigvec", i8, ptr, ptr }

; Function Attrs: inlinehint mustprogress nounwind uwtable
define internal noundef float @_ZL5iprodPKfS0_(ptr noundef %0, ptr noundef %1) #7 {
  %3 = alloca ptr, align 8
  %4 = alloca ptr, align 8
  store ptr %0, ptr %3, align 8, !tbaa !67
  store ptr %1, ptr %4, align 8, !tbaa !67
  %5 = load ptr, ptr %3, align 8, !tbaa !67
  %6 = getelementptr inbounds float, ptr %5, i64 0
  %7 = load float, ptr %6, align 4, !tbaa !229
  %8 = load ptr, ptr %4, align 8, !tbaa !67
  %9 = getelementptr inbounds float, ptr %8, i64 0
  %10 = load float, ptr %9, align 4, !tbaa !229
  %11 = load ptr, ptr %3, align 8, !tbaa !67
  %12 = getelementptr inbounds float, ptr %11, i64 1
  %13 = load float, ptr %12, align 4, !tbaa !229
  %14 = load ptr, ptr %4, align 8, !tbaa !67
  %15 = getelementptr inbounds float, ptr %14, i64 1
  %16 = load float, ptr %15, align 4, !tbaa !229
  %17 = fmul float %13, %16
  %18 = call float @llvm.fmuladd.f32(float %7, float %10, float %17)
  %19 = load ptr, ptr %3, align 8, !tbaa !67
  %20 = getelementptr inbounds float, ptr %19, i64 2
  %21 = load float, ptr %20, align 4, !tbaa !229
  %22 = load ptr, ptr %4, align 8, !tbaa !67
  %23 = getelementptr inbounds float, ptr %22, i64 2
  %24 = load float, ptr %23, align 4, !tbaa !229
  %25 = call float @llvm.fmuladd.f32(float %21, float %24, float %18)
  ret float %25
}

; Function Attrs: inlinehint mustprogress nounwind uwtable
define internal void @_ZL8rvec_incPfPKf(ptr noundef %0, ptr noundef %1) #7 {
  %3 = alloca ptr, align 8
  %4 = alloca ptr, align 8
  %5 = alloca float, align 4
  %6 = alloca float, align 4
  %7 = alloca float, align 4
  store ptr %0, ptr %3, align 8, !tbaa !67
  store ptr %1, ptr %4, align 8, !tbaa !67
  call void @llvm.lifetime.start.p0(i64 4, ptr %5) #17
  call void @llvm.lifetime.start.p0(i64 4, ptr %6) #17
  call void @llvm.lifetime.start.p0(i64 4, ptr %7) #17
  %8 = load ptr, ptr %3, align 8, !tbaa !67
  %9 = getelementptr inbounds float, ptr %8, i64 0
  %10 = load float, ptr %9, align 4, !tbaa !229
  %11 = load ptr, ptr %4, align 8, !tbaa !67
  %12 = getelementptr inbounds float, ptr %11, i64 0
  %13 = load float, ptr %12, align 4, !tbaa !229
  %14 = fadd float %10, %13
  store float %14, ptr %5, align 4, !tbaa !229
  %15 = load ptr, ptr %3, align 8, !tbaa !67
  %16 = getelementptr inbounds float, ptr %15, i64 1
  %17 = load float, ptr %16, align 4, !tbaa !229
  %18 = load ptr, ptr %4, align 8, !tbaa !67
  %19 = getelementptr inbounds float, ptr %18, i64 1
  %20 = load float, ptr %19, align 4, !tbaa !229
  %21 = fadd float %17, %20
  store float %21, ptr %6, align 4, !tbaa !229
  %22 = load ptr, ptr %3, align 8, !tbaa !67
  %23 = getelementptr inbounds float, ptr %22, i64 2
  %24 = load float, ptr %23, align 4, !tbaa !229
  %25 = load ptr, ptr %4, align 8, !tbaa !67
  %26 = getelementptr inbounds float, ptr %25, i64 2
  %27 = load float, ptr %26, align 4, !tbaa !229
  %28 = fadd float %24, %27
  store float %28, ptr %7, align 4, !tbaa !229
  %29 = load float, ptr %5, align 4, !tbaa !229
  %30 = load ptr, ptr %3, align 8, !tbaa !67
  %31 = getelementptr inbounds float, ptr %30, i64 0
  store float %29, ptr %31, align 4, !tbaa !229
  %32 = load float, ptr %6, align 4, !tbaa !229
  %33 = load ptr, ptr %3, align 8, !tbaa !67
  %34 = getelementptr inbounds float, ptr %33, i64 1
  store float %32, ptr %34, align 4, !tbaa !229
  %35 = load float, ptr %7, align 4, !tbaa !229
  %36 = load ptr, ptr %3, align 8, !tbaa !67
  %37 = getelementptr inbounds float, ptr %36, i64 2
  store float %35, ptr %37, align 4, !tbaa !229
  call void @llvm.lifetime.end.p0(i64 4, ptr %7) #17
  call void @llvm.lifetime.end.p0(i64 4, ptr %6) #17
  call void @llvm.lifetime.end.p0(i64 4, ptr %5) #17
  ret void
}

; Function Attrs: mustprogress uwtable
define internal noundef float @_ZN12_GLOBAL__N_18projectxERK5edparPA3_fS4_(ptr noundef nonnull align 8 dereferenceable(888) %0, ptr noundef %1, ptr noundef %2) #4 {
  %4 = alloca ptr, align 8
  %5 = alloca ptr, align 8
  %6 = alloca ptr, align 8
  %7 = alloca i32, align 4
  %8 = alloca float, align 4
  store ptr %0, ptr %4, align 8, !tbaa !22
  store ptr %1, ptr %5, align 8, !tbaa !67
  store ptr %2, ptr %6, align 8, !tbaa !67
  call void @llvm.lifetime.start.p0(i64 4, ptr %7) #17
  call void @llvm.lifetime.start.p0(i64 4, ptr %8) #17
  store float 0.000000e+00, ptr %8, align 4, !tbaa !229
  store i32 0, ptr %7, align 4, !tbaa !226
  br label %9

9:                                                ; preds = %38, %3
  %10 = load i32, ptr %7, align 4, !tbaa !226
  %11 = load ptr, ptr %4, align 8, !tbaa !22
  %12 = getelementptr inbounds nuw %struct.edpar, ptr %11, i32 0, i32 8
  %13 = getelementptr inbounds nuw %struct.gmx_edx, ptr %12, i32 0, i32 0
  %14 = load i32, ptr %13, align 8, !tbaa !208
  %15 = icmp slt i32 %10, %14
  br i1 %15, label %16, label %41

16:                                               ; preds = %9
  %17 = load ptr, ptr %4, align 8, !tbaa !22
  %18 = getelementptr inbounds nuw %struct.edpar, ptr %17, i32 0, i32 8
  %19 = getelementptr inbounds nuw %struct.gmx_edx, ptr %18, i32 0, i32 10
  %20 = load ptr, ptr %19, align 8, !tbaa !320
  %21 = load i32, ptr %7, align 4, !tbaa !226
  %22 = sext i32 %21 to i64
  %23 = getelementptr inbounds float, ptr %20, i64 %22
  %24 = load float, ptr %23, align 4, !tbaa !229
  %25 = load ptr, ptr %6, align 8, !tbaa !67
  %26 = load i32, ptr %7, align 4, !tbaa !226
  %27 = sext i32 %26 to i64
  %28 = getelementptr inbounds [3 x float], ptr %25, i64 %27
  %29 = getelementptr inbounds [3 x float], ptr %28, i64 0, i64 0
  %30 = load ptr, ptr %5, align 8, !tbaa !67
  %31 = load i32, ptr %7, align 4, !tbaa !226
  %32 = sext i32 %31 to i64
  %33 = getelementptr inbounds [3 x float], ptr %30, i64 %32
  %34 = getelementptr inbounds [3 x float], ptr %33, i64 0, i64 0
  %35 = call noundef float @_ZL5iprodPKfS0_(ptr noundef %29, ptr noundef %34)
  %36 = load float, ptr %8, align 4, !tbaa !229
  %37 = call float @llvm.fmuladd.f32(float %24, float %35, float %36)
  store float %37, ptr %8, align 4, !tbaa !229
  br label %38

38:                                               ; preds = %16
  %39 = load i32, ptr %7, align 4, !tbaa !226
  %40 = add nsw i32 %39, 1
  store i32 %40, ptr %7, align 4, !tbaa !226
  br label %9, !llvm.loop !321

41:                                               ; preds = %9
  %42 = load float, ptr %8, align 4, !tbaa !229
  call void @llvm.lifetime.end.p0(i64 4, ptr %8) #17
  call void @llvm.lifetime.end.p0(i64 4, ptr %7) #17
  ret float %42
}

; Function Attrs: inlinehint mustprogress nounwind uwtable
define internal void @_ZL8rvec_decPfPKf(ptr noundef %0, ptr noundef %1) #7 {
  %3 = alloca ptr, align 8
  %4 = alloca ptr, align 8
  %5 = alloca float, align 4
  %6 = alloca float, align 4
  %7 = alloca float, align 4
  store ptr %0, ptr %3, align 8, !tbaa !67
  store ptr %1, ptr %4, align 8, !tbaa !67
  call void @llvm.lifetime.start.p0(i64 4, ptr %5) #17
  call void @llvm.lifetime.start.p0(i64 4, ptr %6) #17
  call void @llvm.lifetime.start.p0(i64 4, ptr %7) #17
  %8 = load ptr, ptr %3, align 8, !tbaa !67
  %9 = getelementptr inbounds float, ptr %8, i64 0
  %10 = load float, ptr %9, align 4, !tbaa !229
  %11 = load ptr, ptr %4, align 8, !tbaa !67
  %12 = getelementptr inbounds float, ptr %11, i64 0
  %13 = load float, ptr %12, align 4, !tbaa !229
  %14 = fsub float %10, %13
  store float %14, ptr %5, align 4, !tbaa !229
  %15 = load ptr, ptr %3, align 8, !tbaa !67
  %16 = getelementptr inbounds float, ptr %15, i64 1
  %17 = load float, ptr %16, align 4, !tbaa !229
  %18 = load ptr, ptr %4, align 8, !tbaa !67
  %19 = getelementptr inbounds float, ptr %18, i64 1
  %20 = load float, ptr %19, align 4, !tbaa !229
  %21 = fsub float %17, %20
  store float %21, ptr %6, align 4, !tbaa !229
  %22 = load ptr, ptr %3, align 8, !tbaa !67
  %23 = getelementptr inbounds float, ptr %22, i64 2
  %24 = load float, ptr %23, align 4, !tbaa !229
  %25 = load ptr, ptr %4, align 8, !tbaa !67
  %26 = getelementptr inbounds float, ptr %25, i64 2
  %27 = load float, ptr %26, align 4, !tbaa !229
  %28 = fsub float %24, %27
  store float %28, ptr %7, align 4, !tbaa !229
  %29 = load float, ptr %5, align 4, !tbaa !229
  %30 = load ptr, ptr %3, align 8, !tbaa !67
  %31 = getelementptr inbounds float, ptr %30, i64 0
  store float %29, ptr %31, align 4, !tbaa !229
  %32 = load float, ptr %6, align 4, !tbaa !229
  %33 = load ptr, ptr %3, align 8, !tbaa !67
  %34 = getelementptr inbounds float, ptr %33, i64 1
  store float %32, ptr %34, align 4, !tbaa !229
  %35 = load float, ptr %7, align 4, !tbaa !229
  %36 = load ptr, ptr %3, align 8, !tbaa !67
  %37 = getelementptr inbounds float, ptr %36, i64 2
  store float %35, ptr %37, align 4, !tbaa !229
  call void @llvm.lifetime.end.p0(i64 4, ptr %7) #17
  call void @llvm.lifetime.end.p0(i64 4, ptr %6) #17
  call void @llvm.lifetime.end.p0(i64 4, ptr %5) #17
  ret void
}

; Function Attrs: mustprogress uwtable
define internal void @_ZN12_GLOBAL__N_121project_to_eigvectorsEPA3_fPNS_8t_eigvecERK5edpar(ptr noundef %0, ptr noundef %1, ptr noundef nonnull align 8 dereferenceable(888) %2) #4 {
  %4 = alloca ptr, align 8
  %5 = alloca ptr, align 8
  %6 = alloca ptr, align 8
  %7 = alloca i32, align 4
  %8 = alloca i32, align 4
  %9 = alloca i32, align 4
  store ptr %0, ptr %4, align 8, !tbaa !67
  store ptr %1, ptr %5, align 8, !tbaa !244
  store ptr %2, ptr %6, align 8, !tbaa !22
  %10 = load ptr, ptr %5, align 8, !tbaa !244
  %11 = getelementptr inbounds nuw %"struct.(anonymous namespace)::t_eigvec", ptr %10, i32 0, i32 0
  %12 = load i32, ptr %11, align 8, !tbaa !246
  %13 = icmp ne i32 %12, 0
  br i1 %13, label %15, label %14

14:                                               ; preds = %3
  br label %95

15:                                               ; preds = %3
  call void @llvm.lifetime.start.p0(i64 4, ptr %7) #17
  store i32 0, ptr %7, align 4, !tbaa !226
  br label %16

16:                                               ; preds = %38, %15
  %17 = load i32, ptr %7, align 4, !tbaa !226
  %18 = load ptr, ptr %6, align 8, !tbaa !22
  %19 = getelementptr inbounds nuw %struct.edpar, ptr %18, i32 0, i32 8
  %20 = getelementptr inbounds nuw %struct.gmx_edx, ptr %19, i32 0, i32 0
  %21 = load i32, ptr %20, align 8, !tbaa !208
  %22 = icmp slt i32 %17, %21
  br i1 %22, label %24, label %23

23:                                               ; preds = %16
  call void @llvm.lifetime.end.p0(i64 4, ptr %7) #17
  br label %41

24:                                               ; preds = %16
  %25 = load ptr, ptr %4, align 8, !tbaa !67
  %26 = load i32, ptr %7, align 4, !tbaa !226
  %27 = sext i32 %26 to i64
  %28 = getelementptr inbounds [3 x float], ptr %25, i64 %27
  %29 = getelementptr inbounds [3 x float], ptr %28, i64 0, i64 0
  %30 = load ptr, ptr %6, align 8, !tbaa !22
  %31 = getelementptr inbounds nuw %struct.edpar, ptr %30, i32 0, i32 8
  %32 = getelementptr inbounds nuw %struct.gmx_edx, ptr %31, i32 0, i32 6
  %33 = load ptr, ptr %32, align 8, !tbaa !247
  %34 = load i32, ptr %7, align 4, !tbaa !226
  %35 = sext i32 %34 to i64
  %36 = getelementptr inbounds [3 x float], ptr %33, i64 %35
  %37 = getelementptr inbounds [3 x float], ptr %36, i64 0, i64 0
  call void @_ZL8rvec_decPfPKf(ptr noundef %29, ptr noundef %37)
  br label %38

38:                                               ; preds = %24
  %39 = load i32, ptr %7, align 4, !tbaa !226
  %40 = add nsw i32 %39, 1
  store i32 %40, ptr %7, align 4, !tbaa !226
  br label %16, !llvm.loop !248

41:                                               ; preds = %23
  call void @llvm.lifetime.start.p0(i64 4, ptr %8) #17
  store i32 0, ptr %8, align 4, !tbaa !226
  br label %42

42:                                               ; preds = %66, %41
  %43 = load i32, ptr %8, align 4, !tbaa !226
  %44 = load ptr, ptr %5, align 8, !tbaa !244
  %45 = getelementptr inbounds nuw %"struct.(anonymous namespace)::t_eigvec", ptr %44, i32 0, i32 0
  %46 = load i32, ptr %45, align 8, !tbaa !246
  %47 = icmp slt i32 %43, %46
  br i1 %47, label %49, label %48

48:                                               ; preds = %42
  call void @llvm.lifetime.end.p0(i64 4, ptr %8) #17
  br label %69

49:                                               ; preds = %42
  %50 = load ptr, ptr %6, align 8, !tbaa !22
  %51 = load ptr, ptr %4, align 8, !tbaa !67
  %52 = load ptr, ptr %5, align 8, !tbaa !244
  %53 = getelementptr inbounds nuw %"struct.(anonymous namespace)::t_eigvec", ptr %52, i32 0, i32 3
  %54 = load ptr, ptr %53, align 8, !tbaa !249
  %55 = load i32, ptr %8, align 4, !tbaa !226
  %56 = sext i32 %55 to i64
  %57 = getelementptr inbounds ptr, ptr %54, i64 %56
  %58 = load ptr, ptr %57, align 8, !tbaa !67
  %59 = call noundef float @_ZN12_GLOBAL__N_18projectxERK5edparPA3_fS4_(ptr noundef nonnull align 8 dereferenceable(888) %50, ptr noundef %51, ptr noundef %58)
  %60 = load ptr, ptr %5, align 8, !tbaa !244
  %61 = getelementptr inbounds nuw %"struct.(anonymous namespace)::t_eigvec", ptr %60, i32 0, i32 4
  %62 = load ptr, ptr %61, align 8, !tbaa !250
  %63 = load i32, ptr %8, align 4, !tbaa !226
  %64 = sext i32 %63 to i64
  %65 = getelementptr inbounds float, ptr %62, i64 %64
  store float %59, ptr %65, align 4, !tbaa !229
  br label %66

66:                                               ; preds = %49
  %67 = load i32, ptr %8, align 4, !tbaa !226
  %68 = add nsw i32 %67, 1
  store i32 %68, ptr %8, align 4, !tbaa !226
  br label %42, !llvm.loop !251

69:                                               ; preds = %48
  call void @llvm.lifetime.start.p0(i64 4, ptr %9) #17
  store i32 0, ptr %9, align 4, !tbaa !226
  br label %70

70:                                               ; preds = %92, %69
  %71 = load i32, ptr %9, align 4, !tbaa !226
  %72 = load ptr, ptr %6, align 8, !tbaa !22
  %73 = getelementptr inbounds nuw %struct.edpar, ptr %72, i32 0, i32 8
  %74 = getelementptr inbounds nuw %struct.gmx_edx, ptr %73, i32 0, i32 0
  %75 = load i32, ptr %74, align 8, !tbaa !208
  %76 = icmp slt i32 %71, %75
  br i1 %76, label %78, label %77

77:                                               ; preds = %70
  call void @llvm.lifetime.end.p0(i64 4, ptr %9) #17
  br label %95

78:                                               ; preds = %70
  %79 = load ptr, ptr %4, align 8, !tbaa !67
  %80 = load i32, ptr %9, align 4, !tbaa !226
  %81 = sext i32 %80 to i64
  %82 = getelementptr inbounds [3 x float], ptr %79, i64 %81
  %83 = getelementptr inbounds [3 x float], ptr %82, i64 0, i64 0
  %84 = load ptr, ptr %6, align 8, !tbaa !22
  %85 = getelementptr inbounds nuw %struct.edpar, ptr %84, i32 0, i32 8
  %86 = getelementptr inbounds nuw %struct.gmx_edx, ptr %85, i32 0, i32 6
  %87 = load ptr, ptr %86, align 8, !tbaa !247
  %88 = load i32, ptr %9, align 4, !tbaa !226
  %89 = sext i32 %88 to i64
  %90 = getelementptr inbounds [3 x float], ptr %87, i64 %89
  %91 = getelementptr inbounds [3 x float], ptr %90, i64 0, i64 0
  call void @_ZL8rvec_incPfPKf(ptr noundef %83, ptr noundef %91)
  br label %92

92:                                               ; preds = %78
  %93 = load i32, ptr %9, align 4, !tbaa !226
  %94 = add nsw i32 %93, 1
  store i32 %94, ptr %9, align 4, !tbaa !226
  br label %70, !llvm.loop !252

95:                                               ; preds = %14, %77
  ret void
}