; Function Attrs: mustprogress nofree norecurse nosync nounwind memory(readwrite, inaccessiblemem: none) uwtable
define internal fastcc void @_ZN12_GLOBAL__N_121project_to_eigvectorsEPA3_fPNS_8t_eigvecERK5edpar(ptr noundef captures(none) %0, ptr noundef nonnull readonly captures(none) %1, ptr noundef nonnull readonly align 8 captures(none) dereferenceable(888) %2) unnamed_addr #11 {
  %4 = load i32, ptr %1, align 8, !tbaa !237
  %.not = icmp eq i32 %4, 0
  br i1 %.not, label %.loopexit, label %.preheader27

.preheader27:                                     ; preds = %3
  %5 = getelementptr inbounds nuw i8, ptr %2, i64 112
  %6 = load i32, ptr %5, align 8, !tbaa !155
  %7 = icmp sgt i32 %6, 0
  br i1 %7, label %.lr.ph, label %.preheader26

.lr.ph:                                           ; preds = %.preheader27
  %8 = getelementptr inbounds nuw i8, ptr %2, i64 152
  %9 = load ptr, ptr %8, align 8, !tbaa !238
  %wide.trip.count = zext nneg i32 %6 to i64
  br label %16

.preheader26:                                     ; preds = %16, %.preheader27
  %10 = icmp sgt i32 %4, 0
  br i1 %10, label %.lr.ph32, label %.preheader

.lr.ph32:                                         ; preds = %.preheader26
  %11 = getelementptr inbounds nuw i8, ptr %1, i64 24
  %12 = load ptr, ptr %11, align 8, !tbaa !239
  %13 = getelementptr inbounds nuw i8, ptr %2, i64 184
  %14 = getelementptr inbounds nuw i8, ptr %1, i64 32
  %15 = load ptr, ptr %14, align 8, !tbaa !240
  %wide.trip.count39 = zext nneg i32 %4 to i64
  br label %34

16:                                               ; preds = %.lr.ph, %16
  %indvars.iv = phi i64 [ 0, %.lr.ph ], [ %indvars.iv.next, %16 ]
  %17 = getelementptr inbounds nuw [3 x float], ptr %0, i64 %indvars.iv
  %18 = getelementptr inbounds nuw [3 x float], ptr %9, i64 %indvars.iv
  %19 = load float, ptr %17, align 4, !tbaa !178
  %20 = load float, ptr %18, align 4, !tbaa !178
  %21 = fsub float %19, %20
  %22 = getelementptr inbounds nuw i8, ptr %17, i64 4
  %23 = load float, ptr %22, align 4, !tbaa !178
  %24 = getelementptr inbounds nuw i8, ptr %18, i64 4
  %25 = load float, ptr %24, align 4, !tbaa !178
  %26 = fsub float %23, %25
  %27 = getelementptr inbounds nuw i8, ptr %17, i64 8
  %28 = load float, ptr %27, align 4, !tbaa !178
  %29 = getelementptr inbounds nuw i8, ptr %18, i64 8
  %30 = load float, ptr %29, align 4, !tbaa !178
  %31 = fsub float %28, %30
  store float %21, ptr %17, align 4, !tbaa !178
  store float %26, ptr %22, align 4, !tbaa !178
  store float %31, ptr %27, align 4, !tbaa !178
  %indvars.iv.next = add nuw nsw i64 %indvars.iv, 1
  %exitcond.not = icmp eq i64 %indvars.iv.next, %wide.trip.count
  br i1 %exitcond.not, label %.preheader26, label %16, !llvm.loop !241

.preheader:                                       ; preds = %_ZN12_GLOBAL__N_18projectxERK5edparPA3_fS4_.exit, %.preheader26
  br i1 %7, label %.lr.ph34, label %.loopexit

.lr.ph34:                                         ; preds = %.preheader
  %32 = getelementptr inbounds nuw i8, ptr %2, i64 152
  %33 = load ptr, ptr %32, align 8, !tbaa !238
  %wide.trip.count44 = zext nneg i32 %6 to i64
  br label %57

34:                                               ; preds = %.lr.ph32, %_ZN12_GLOBAL__N_18projectxERK5edparPA3_fS4_.exit
  %indvars.iv36 = phi i64 [ 0, %.lr.ph32 ], [ %indvars.iv.next37, %_ZN12_GLOBAL__N_18projectxERK5edparPA3_fS4_.exit ]
  %35 = getelementptr inbounds nuw ptr, ptr %12, i64 %indvars.iv36
  %36 = load ptr, ptr %35, align 8, !tbaa !172
  %.val = load i32, ptr %5, align 8
  %.val25 = load ptr, ptr %13, align 8
  %37 = icmp sgt i32 %.val, 0
  br i1 %37, label %.lr.ph.preheader.i, label %_ZN12_GLOBAL__N_18projectxERK5edparPA3_fS4_.exit

.lr.ph.preheader.i:                               ; preds = %34
  %wide.trip.count.i = zext nneg i32 %.val to i64
  br label %.lr.ph.i

.lr.ph.i:                                         ; preds = %.lr.ph.i, %.lr.ph.preheader.i
  %indvars.iv.i = phi i64 [ 0, %.lr.ph.preheader.i ], [ %indvars.iv.next.i, %.lr.ph.i ]
  %.02.i = phi float [ 0.000000e+00, %.lr.ph.preheader.i ], [ %55, %.lr.ph.i ]
  %38 = getelementptr inbounds nuw float, ptr %.val25, i64 %indvars.iv.i
  %39 = load float, ptr %38, align 4, !tbaa !178
  %40 = getelementptr inbounds nuw [3 x float], ptr %36, i64 %indvars.iv.i
  %41 = getelementptr inbounds nuw [3 x float], ptr %0, i64 %indvars.iv.i
  %42 = load float, ptr %40, align 4, !tbaa !178
  %43 = load float, ptr %41, align 4, !tbaa !178
  %44 = getelementptr inbounds nuw i8, ptr %40, i64 4
  %45 = load float, ptr %44, align 4, !tbaa !178
  %46 = getelementptr inbounds nuw i8, ptr %41, i64 4
  %47 = load float, ptr %46, align 4, !tbaa !178
  %48 = fmul float %45, %47
  %49 = tail call float @llvm.fmuladd.f32(float %42, float %43, float %48)
  %50 = getelementptr inbounds nuw i8, ptr %40, i64 8
  %51 = load float, ptr %50, align 4, !tbaa !178
  %52 = getelementptr inbounds nuw i8, ptr %41, i64 8
  %53 = load float, ptr %52, align 4, !tbaa !178
  %54 = tail call noundef float @llvm.fmuladd.f32(float %51, float %53, float %49)
  %55 = tail call float @llvm.fmuladd.f32(float %39, float %54, float %.02.i)
  %indvars.iv.next.i = add nuw nsw i64 %indvars.iv.i, 1
  %exitcond.not.i = icmp eq i64 %indvars.iv.next.i, %wide.trip.count.i
  br i1 %exitcond.not.i, label %_ZN12_GLOBAL__N_18projectxERK5edparPA3_fS4_.exit, label %.lr.ph.i, !llvm.loop !242

_ZN12_GLOBAL__N_18projectxERK5edparPA3_fS4_.exit: ; preds = %.lr.ph.i, %34
  %.0.lcssa.i = phi float [ 0.000000e+00, %34 ], [ %55, %.lr.ph.i ]
  %56 = getelementptr inbounds nuw float, ptr %15, i64 %indvars.iv36
  store float %.0.lcssa.i, ptr %56, align 4, !tbaa !178
  %indvars.iv.next37 = add nuw nsw i64 %indvars.iv36, 1
  %exitcond40.not = icmp eq i64 %indvars.iv.next37, %wide.trip.count39
  br i1 %exitcond40.not, label %.preheader, label %34, !llvm.loop !243

57:                                               ; preds = %.lr.ph34, %57
  %indvars.iv41 = phi i64 [ 0, %.lr.ph34 ], [ %indvars.iv.next42, %57 ]
  %58 = getelementptr inbounds nuw [3 x float], ptr %0, i64 %indvars.iv41
  %59 = getelementptr inbounds nuw [3 x float], ptr %33, i64 %indvars.iv41
  %60 = load float, ptr %58, align 4, !tbaa !178
  %61 = load float, ptr %59, align 4, !tbaa !178
  %62 = fadd float %60, %61
  %63 = getelementptr inbounds nuw i8, ptr %58, i64 4
  %64 = load float, ptr %63, align 4, !tbaa !178
  %65 = getelementptr inbounds nuw i8, ptr %59, i64 4
  %66 = load float, ptr %65, align 4, !tbaa !178
  %67 = fadd float %64, %66
  %68 = getelementptr inbounds nuw i8, ptr %58, i64 8
  %69 = load float, ptr %68, align 4, !tbaa !178
  %70 = getelementptr inbounds nuw i8, ptr %59, i64 8
  %71 = load float, ptr %70, align 4, !tbaa !178
  %72 = fadd float %69, %71
  store float %62, ptr %58, align 4, !tbaa !178
  store float %67, ptr %63, align 4, !tbaa !178
  store float %72, ptr %68, align 4, !tbaa !178
  %indvars.iv.next42 = add nuw nsw i64 %indvars.iv41, 1
  %exitcond45.not = icmp eq i64 %indvars.iv.next42, %wide.trip.count44
  br i1 %exitcond45.not, label %.loopexit, label %57, !llvm.loop !244

.loopexit:                                        ; preds = %57, %.preheader, %3
  ret void
}